target datalayout = "e-m:e-p270:32:32-p271:32:32-p272:64:64-i64:64-i128:128-f80:128-n8:16:32:64-S128"
target triple = "x86_64-pc-linux-gnu"

%struct.AVDOVIDecoderConfigurationRecord = type { i8, i8, i8, i8, i8, i8, i8, i8, i8 }
%struct.AVStream = type { ptr, i32, i32, ptr, ptr, %struct.AVRational, i64, i64, i64, i32, i32, %struct.AVRational, ptr, %struct.AVRational, %struct.AVPacket, i32, %struct.AVRational, i32 }
%struct.AVPacket = type { ptr, i64, i64, ptr, i32, i32, i32, ptr, i32, i64, i64, ptr, ptr, %struct.AVRational }
%struct.AVRational = type { i32, i32 }
%struct.AVCodecParameters = type { i32, i32, i32, ptr, i32, ptr, i32, i32, i64, i32, i32, i32, i32, i32, i32, %struct.AVRational, %struct.AVRational, i32, i32, i32, i32, i32, i32, i32, %struct.AVChannelLayout, i32, i32, i32, i32, i32, i32 }
%struct.AVChannelLayout = type { i32, i32, %union.anon, ptr }
%union.anon = type { i64 }

@.str = private unnamed_addr constant [147 x i8] c"DOVI in dvcC/dvvC/dvwC box, version: %d.%d, profile: %d, level: %d, rpu flag: %d, el flag: %d, bl flag: %d, compatibility id: %d, compression: %d\0A\00", align 1

; Function Attrs: nounwind uwtable
define i32 @ff_isom_parse_dvcc_dvvc(ptr noundef %0, ptr noundef %1, ptr noundef %2, i64 noundef %3) #0 {
  %5 = alloca i32, align 4
  %6 = alloca ptr, align 8
  %7 = alloca ptr, align 8
  %8 = alloca ptr, align 8
  %9 = alloca i64, align 8
  %10 = alloca i32, align 4
  %11 = alloca ptr, align 8
  %12 = alloca i64, align 8
  %13 = alloca i32, align 4
  %14 = alloca i8, align 1
  store ptr %0, ptr %6, align 8, !tbaa !4
  store ptr %1, ptr %7, align 8, !tbaa !8
  store ptr %2, ptr %8, align 8, !tbaa !10
  store i64 %3, ptr %9, align 8, !tbaa !12
  call void @llvm.lifetime.start.p0(i64 4, ptr %10) #6
  call void @llvm.lifetime.start.p0(i64 8, ptr %11) #6
  call void @llvm.lifetime.start.p0(i64 8, ptr %12) #6
  %15 = load i64, ptr %9, align 8, !tbaa !12
  %16 = icmp ugt i64 %15, 1073741824
  br i1 %16, label %20, label %17

17:                                               ; preds = %4
  %18 = load i64, ptr %9, align 8, !tbaa !12
  %19 = icmp ult i64 %18, 4
  br i1 %19, label %20, label %21

20:                                               ; preds = %17, %4
  store i32 -1094995529, ptr %5, align 4
  store i32 1, ptr %13, align 4
  br label %155

21:                                               ; preds = %17
  %22 = call ptr @av_dovi_alloc(ptr noundef %12)
  store ptr %22, ptr %11, align 8, !tbaa !14
  %23 = load ptr, ptr %11, align 8, !tbaa !14
  %24 = icmp ne ptr %23, null
  br i1 %24, label %26, label %25

25:                                               ; preds = %21
  store i32 -12, ptr %5, align 4
  store i32 1, ptr %13, align 4
  br label %155

26:                                               ; preds = %21
  %27 = load ptr, ptr %8, align 8, !tbaa !10
  %28 = getelementptr inbounds nuw i8, ptr %27, i32 1
  store ptr %28, ptr %8, align 8, !tbaa !10
  %29 = load i8, ptr %27, align 1, !tbaa !16
  %30 = load ptr, ptr %11, align 8, !tbaa !14
  %31 = getelementptr inbounds nuw %struct.AVDOVIDecoderConfigurationRecord, ptr %30, i32 0, i32 0
  store i8 %29, ptr %31, align 1, !tbaa !17
  %32 = load ptr, ptr %8, align 8, !tbaa !10
  %33 = getelementptr inbounds nuw i8, ptr %32, i32 1
  store ptr %33, ptr %8, align 8, !tbaa !10
  %34 = load i8, ptr %32, align 1, !tbaa !16
  %35 = load ptr, ptr %11, align 8, !tbaa !14
  %36 = getelementptr inbounds nuw %struct.AVDOVIDecoderConfigurationRecord, ptr %35, i32 0, i32 1
  store i8 %34, ptr %36, align 1, !tbaa !19
  %37 = load ptr, ptr %8, align 8, !tbaa !10
  %38 = getelementptr inbounds nuw i8, ptr %37, i32 1
  store ptr %38, ptr %8, align 8, !tbaa !10
  %39 = load i8, ptr %37, align 1, !tbaa !16
  %40 = zext i8 %39 to i32
  %41 = shl i32 %40, 8
  store i32 %41, ptr %10, align 4, !tbaa !20
  %42 = load ptr, ptr %8, align 8, !tbaa !10
  %43 = getelementptr inbounds nuw i8, ptr %42, i32 1
  store ptr %43, ptr %8, align 8, !tbaa !10
  %44 = load i8, ptr %42, align 1, !tbaa !16
  %45 = zext i8 %44 to i32
  %46 = load i32, ptr %10, align 4, !tbaa !20
  %47 = or i32 %46, %45
  store i32 %47, ptr %10, align 4, !tbaa !20
  %48 = load i32, ptr %10, align 4, !tbaa !20
  %49 = lshr i32 %48, 9
  %50 = and i32 %49, 127
  %51 = trunc i32 %50 to i8
  %52 = load ptr, ptr %11, align 8, !tbaa !14
  %53 = getelementptr inbounds nuw %struct.AVDOVIDecoderConfigurationRecord, ptr %52, i32 0, i32 2
  store i8 %51, ptr %53, align 1, !tbaa !22
  %54 = load i32, ptr %10, align 4, !tbaa !20
  %55 = lshr i32 %54, 3
  %56 = and i32 %55, 63
  %57 = trunc i32 %56 to i8
  %58 = load ptr, ptr %11, align 8, !tbaa !14
  %59 = getelementptr inbounds nuw %struct.AVDOVIDecoderConfigurationRecord, ptr %58, i32 0, i32 3
  store i8 %57, ptr %59, align 1, !tbaa !23
  %60 = load i32, ptr %10, align 4, !tbaa !20
  %61 = lshr i32 %60, 2
  %62 = and i32 %61, 1
  %63 = trunc i32 %62 to i8
  %64 = load ptr, ptr %11, align 8, !tbaa !14
  %65 = getelementptr inbounds nuw %struct.AVDOVIDecoderConfigurationRecord, ptr %64, i32 0, i32 4
  store i8 %63, ptr %65, align 1, !tbaa !24
  %66 = load i32, ptr %10, align 4, !tbaa !20
  %67 = lshr i32 %66, 1
  %68 = and i32 %67, 1
  %69 = trunc i32 %68 to i8
  %70 = load ptr, ptr %11, align 8, !tbaa !14
  %71 = getelementptr inbounds nuw %struct.AVDOVIDecoderConfigurationRecord, ptr %70, i32 0, i32 5
  store i8 %69, ptr %71, align 1, !tbaa !25
  %72 = load i32, ptr %10, align 4, !tbaa !20
  %73 = and i32 %72, 1
  %74 = trunc i32 %73 to i8
  %75 = load ptr, ptr %11, align 8, !tbaa !14
  %76 = getelementptr inbounds nuw %struct.AVDOVIDecoderConfigurationRecord, ptr %75, i32 0, i32 6
  store i8 %74, ptr %76, align 1, !tbaa !26
  %77 = load i64, ptr %9, align 8, !tbaa !12
  %78 = icmp uge i64 %77, 5
  br i1 %78, label %79, label %97

79:                                               ; preds = %26
  call void @llvm.lifetime.start.p0(i64 1, ptr %14) #6
  %80 = load ptr, ptr %8, align 8, !tbaa !10
  %81 = getelementptr inbounds nuw i8, ptr %80, i32 1
  store ptr %81, ptr %8, align 8, !tbaa !10
  %82 = load i8, ptr %80, align 1, !tbaa !16
  store i8 %82, ptr %14, align 1, !tbaa !16
  %83 = load i8, ptr %14, align 1, !tbaa !16
  %84 = zext i8 %83 to i32
  %85 = ashr i32 %84, 4
  %86 = and i32 %85, 15
  %87 = trunc i32 %86 to i8
  %88 = load ptr, ptr %11, align 8, !tbaa !14
  %89 = getelementptr inbounds nuw %struct.AVDOVIDecoderConfigurationRecord, ptr %88, i32 0, i32 7
  store i8 %87, ptr %89, align 1, !tbaa !27
  %90 = load i8, ptr %14, align 1, !tbaa !16
  %91 = zext i8 %90 to i32
  %92 = ashr i32 %91, 2
  %93 = and i32 %92, 3
  %94 = trunc i32 %93 to i8
  %95 = load ptr, ptr %11, align 8, !tbaa !14
  %96 = getelementptr inbounds nuw %struct.AVDOVIDecoderConfigurationRecord, ptr %95, i32 0, i32 8
  store i8 %94, ptr %96, align 1, !tbaa !28
  call void @llvm.lifetime.end.p0(i64 1, ptr %14) #6
  br label %102

97:                                               ; preds = %26
  %98 = load ptr, ptr %11, align 8, !tbaa !14
  %99 = getelementptr inbounds nuw %struct.AVDOVIDecoderConfigurationRecord, ptr %98, i32 0, i32 7
  store i8 0, ptr %99, align 1, !tbaa !27
  %100 = load ptr, ptr %11, align 8, !tbaa !14
  %101 = getelementptr inbounds nuw %struct.AVDOVIDecoderConfigurationRecord, ptr %100, i32 0, i32 8
  store i8 0, ptr %101, align 1, !tbaa !28
  br label %102

102:                                              ; preds = %97, %79
  %103 = load ptr, ptr %7, align 8, !tbaa !8
  %104 = getelementptr inbounds nuw %struct.AVStream, ptr %103, i32 0, i32 3
  %105 = load ptr, ptr %104, align 8, !tbaa !29
  %106 = getelementptr inbounds nuw %struct.AVCodecParameters, ptr %105, i32 0, i32 5
  %107 = load ptr, ptr %7, align 8, !tbaa !8
  %108 = getelementptr inbounds nuw %struct.AVStream, ptr %107, i32 0, i32 3
  %109 = load ptr, ptr %108, align 8, !tbaa !29
  %110 = getelementptr inbounds nuw %struct.AVCodecParameters, ptr %109, i32 0, i32 6
  %111 = load ptr, ptr %11, align 8, !tbaa !14
  %112 = load i64, ptr %12, align 8, !tbaa !12
  %113 = call ptr @av_packet_side_data_add(ptr noundef %106, ptr noundef %110, i32 noundef 29, ptr noundef %111, i64 noundef %112, i32 noundef 0)
  %114 = icmp ne ptr %113, null
  br i1 %114, label %117, label %115

115:                                              ; preds = %102
  %116 = load ptr, ptr %11, align 8, !tbaa !14
  call void @av_free(ptr noundef %116)
  store i32 -12, ptr %5, align 4
  store i32 1, ptr %13, align 4
  br label %155

117:                                              ; preds = %102
  %118 = load ptr, ptr %6, align 8, !tbaa !4
  %119 = load ptr, ptr %11, align 8, !tbaa !14
  %120 = getelementptr inbounds nuw %struct.AVDOVIDecoderConfigurationRecord, ptr %119, i32 0, i32 0
  %121 = load i8, ptr %120, align 1, !tbaa !17
  %122 = zext i8 %121 to i32
  %123 = load ptr, ptr %11, align 8, !tbaa !14
  %124 = getelementptr inbounds nuw %struct.AVDOVIDecoderConfigurationRecord, ptr %123, i32 0, i32 1
  %125 = load i8, ptr %124, align 1, !tbaa !19
  %126 = zext i8 %125 to i32
  %127 = load ptr, ptr %11, align 8, !tbaa !14
  %128 = getelementptr inbounds nuw %struct.AVDOVIDecoderConfigurationRecord, ptr %127, i32 0, i32 2
  %129 = load i8, ptr %128, align 1, !tbaa !22
  %130 = zext i8 %129 to i32
  %131 = load ptr, ptr %11, align 8, !tbaa !14
  %132 = getelementptr inbounds nuw %struct.AVDOVIDecoderConfigurationRecord, ptr %131, i32 0, i32 3
  %133 = load i8, ptr %132, align 1, !tbaa !23
  %134 = zext i8 %133 to i32
  %135 = load ptr, ptr %11, align 8, !tbaa !14
  %136 = getelementptr inbounds nuw %struct.AVDOVIDecoderConfigurationRecord, ptr %135, i32 0, i32 4
  %137 = load i8, ptr %136, align 1, !tbaa !24
  %138 = zext i8 %137 to i32
  %139 = load ptr, ptr %11, align 8, !tbaa !14
  %140 = getelementptr inbounds nuw %struct.AVDOVIDecoderConfigurationRecord, ptr %139, i32 0, i32 5
  %141 = load i8, ptr %140, align 1, !tbaa !25
  %142 = zext i8 %141 to i32
  %143 = load ptr, ptr %11, align 8, !tbaa !14
  %144 = getelementptr inbounds nuw %struct.AVDOVIDecoderConfigurationRecord, ptr %143, i32 0, i32 6
  %145 = load i8, ptr %144, align 1, !tbaa !26
  %146 = zext i8 %145 to i32
  %147 = load ptr, ptr %11, align 8, !tbaa !14
  %148 = getelementptr inbounds nuw %struct.AVDOVIDecoderConfigurationRecord, ptr %147, i32 0, i32 7
  %149 = load i8, ptr %148, align 1, !tbaa !27
  %150 = zext i8 %149 to i32
  %151 = load ptr, ptr %11, align 8, !tbaa !14
  %152 = getelementptr inbounds nuw %struct.AVDOVIDecoderConfigurationRecord, ptr %151, i32 0, i32 8
  %153 = load i8, ptr %152, align 1, !tbaa !28
  %154 = zext i8 %153 to i32
  call void (ptr, i32, ptr, ...) @av_log(ptr noundef %118, i32 noundef 56, ptr noundef @.str, i32 noundef %122, i32 noundef %126, i32 noundef %130, i32 noundef %134, i32 noundef %138, i32 noundef %142, i32 noundef %146, i32 noundef %150, i32 noundef %154)
  store i32 0, ptr %5, align 4
  store i32 1, ptr %13, align 4
  br label %155

155:                                              ; preds = %117, %115, %25, %20
  call void @llvm.lifetime.end.p0(i64 8, ptr %12) #6
  call void @llvm.lifetime.end.p0(i64 8, ptr %11) #6
  call void @llvm.lifetime.end.p0(i64 4, ptr %10) #6
  %156 = load i32, ptr %5, align 4
  ret i32 %156
}