; Function Attrs: nounwind uwtable
define range(i32 -1094995529, 1) i32 @ff_isom_parse_dvcc_dvvc(ptr noundef %0, ptr noundef readonly captures(none) %1, ptr noundef readonly captures(none) %2, i64 noundef %3) local_unnamed_addr #0 {
  %5 = alloca i64, align 8
  call void @llvm.lifetime.start.p0(i64 8, ptr nonnull %5) #4
  %6 = add i64 %3, -1073741825
  %or.cond = icmp ult i64 %6, -1073741821
  br i1 %or.cond, label %72, label %7

7:                                                ; preds = %4
  %8 = call ptr @av_dovi_alloc(ptr noundef nonnull %5) #4
  %.not = icmp eq ptr %8, null
  br i1 %.not, label %72, label %9

9:                                                ; preds = %7
  %10 = getelementptr inbounds nuw i8, ptr %2, i64 1
  %11 = load i8, ptr %2, align 1, !tbaa !4
  store i8 %11, ptr %8, align 1, !tbaa !7
  %12 = getelementptr inbounds nuw i8, ptr %2, i64 2
  %13 = load i8, ptr %10, align 1, !tbaa !4
  %14 = getelementptr inbounds nuw i8, ptr %8, i64 1
  store i8 %13, ptr %14, align 1, !tbaa !9
  %15 = getelementptr inbounds nuw i8, ptr %2, i64 3
  %16 = load i8, ptr %12, align 1, !tbaa !4
  %17 = zext i8 %16 to i16
  %18 = shl nuw i16 %17, 8
  %19 = load i8, ptr %15, align 1, !tbaa !4
  %20 = zext i8 %19 to i16
  %21 = or disjoint i16 %18, %20
  %22 = lshr i8 %16, 1
  %23 = getelementptr inbounds nuw i8, ptr %8, i64 2
  store i8 %22, ptr %23, align 1, !tbaa !10
  %24 = lshr i16 %21, 3
  %25 = trunc i16 %24 to i8
  %26 = and i8 %25, 63
  %27 = getelementptr inbounds nuw i8, ptr %8, i64 3
  store i8 %26, ptr %27, align 1, !tbaa !11
  %28 = lshr i8 %19, 2
  %29 = and i8 %28, 1
  %30 = getelementptr inbounds nuw i8, ptr %8, i64 4
  store i8 %29, ptr %30, align 1, !tbaa !12
  %31 = lshr i8 %19, 1
  %32 = and i8 %31, 1
  %33 = getelementptr inbounds nuw i8, ptr %8, i64 5
  store i8 %32, ptr %33, align 1, !tbaa !13
  %34 = and i8 %19, 1
  %35 = getelementptr inbounds nuw i8, ptr %8, i64 6
  store i8 %34, ptr %35, align 1, !tbaa !14
  %36 = icmp samesign ugt i64 %3, 4
  br i1 %36, label %37, label %43

37:                                               ; preds = %9
  %38 = getelementptr inbounds nuw i8, ptr %2, i64 4
  %39 = load i8, ptr %38, align 1, !tbaa !4
  %40 = lshr i8 %39, 4
  %41 = lshr i8 %39, 2
  %42 = and i8 %41, 3
  br label %43

43:                                               ; preds = %9, %37
  %.sink46 = phi i8 [ %40, %37 ], [ 0, %9 ]
  %.sink = phi i8 [ %42, %37 ], [ 0, %9 ]
  %44 = getelementptr inbounds nuw i8, ptr %8, i64 7
  store i8 %.sink46, ptr %44, align 1, !tbaa !15
  %45 = getelementptr inbounds nuw i8, ptr %8, i64 8
  store i8 %.sink, ptr %45, align 1, !tbaa !16
  %46 = getelementptr inbounds nuw i8, ptr %1, i64 16
  %47 = load ptr, ptr %46, align 8, !tbaa !17
  %48 = getelementptr inbounds nuw i8, ptr %47, i64 32
  %49 = getelementptr inbounds nuw i8, ptr %47, i64 40
  %50 = load i64, ptr %5, align 8, !tbaa !30
  %51 = call ptr @av_packet_side_data_add(ptr noundef nonnull %48, ptr noundef nonnull %49, i32 noundef 29, ptr noundef nonnull %8, i64 noundef %50, i32 noundef 0) #4
  %.not45 = icmp eq ptr %51, null
  br i1 %.not45, label %52, label %53

52:                                               ; preds = %43
  call void @av_free(ptr noundef nonnull %8) #4
  br label %72

53:                                               ; preds = %43
  %54 = load i8, ptr %8, align 1, !tbaa !7
  %55 = zext i8 %54 to i32
  %56 = load i8, ptr %14, align 1, !tbaa !9
  %57 = zext i8 %56 to i32
  %58 = load i8, ptr %23, align 1, !tbaa !10
  %59 = zext i8 %58 to i32
  %60 = load i8, ptr %27, align 1, !tbaa !11
  %61 = zext i8 %60 to i32
  %62 = load i8, ptr %30, align 1, !tbaa !12
  %63 = zext i8 %62 to i32
  %64 = load i8, ptr %33, align 1, !tbaa !13
  %65 = zext i8 %64 to i32
  %66 = load i8, ptr %35, align 1, !tbaa !14
  %67 = zext i8 %66 to i32
  %68 = load i8, ptr %44, align 1, !tbaa !15
  %69 = zext i8 %68 to i32
  %70 = load i8, ptr %45, align 1, !tbaa !16
  %71 = zext i8 %70 to i32
  call void (ptr, i32, ptr, ...) @av_log(ptr noundef %0, i32 noundef 56, ptr noundef nonnull @.str, i32 noundef %55, i32 noundef %57, i32 noundef %59, i32 noundef %61, i32 noundef %63, i32 noundef %65, i32 noundef %67, i32 noundef %69, i32 noundef %71) #4
  br label %72

72:                                               ; preds = %7, %4, %53, %52
  %.0 = phi i32 [ 0, %53 ], [ -12, %52 ], [ -1094995529, %4 ], [ -12, %7 ]
  call void @llvm.lifetime.end.p0(i64 8, ptr nonnull %5) #4
  ret i32 %.0
}